
apa102_demo_matrix.elf:     file format elf32-avr

Sections:
Idx Name          Size      VMA       LMA       File off  Algn
  0 .data         00000000  00800100  00800100  000003e6  2**0
                  CONTENTS, ALLOC, LOAD, DATA
  1 .text         00000392  00000000  00000000  00000054  2**1
                  CONTENTS, ALLOC, LOAD, READONLY, CODE
  2 .comment      00000030  00000000  00000000  000003e6  2**0
                  CONTENTS, READONLY
  3 .note.gnu.avr.deviceinfo 0000003c  00000000  00000000  00000418  2**2
                  CONTENTS, READONLY
  4 .debug_aranges 000000d8  00000000  00000000  00000454  2**0
                  CONTENTS, READONLY, DEBUGGING
  5 .debug_info   000019aa  00000000  00000000  0000052c  2**0
                  CONTENTS, READONLY, DEBUGGING
  6 .debug_abbrev 00000a6c  00000000  00000000  00001ed6  2**0
                  CONTENTS, READONLY, DEBUGGING
  7 .debug_line   00000823  00000000  00000000  00002942  2**0
                  CONTENTS, READONLY, DEBUGGING
  8 .debug_frame  00000224  00000000  00000000  00003168  2**2
                  CONTENTS, READONLY, DEBUGGING
  9 .debug_str    000006d9  00000000  00000000  0000338c  2**0
                  CONTENTS, READONLY, DEBUGGING
 10 .debug_loc    00000c73  00000000  00000000  00003a65  2**0
                  CONTENTS, READONLY, DEBUGGING
 11 .debug_ranges 00000120  00000000  00000000  000046d8  2**0
                  CONTENTS, READONLY, DEBUGGING

Disassembly of section .text:

00000000 <__vectors>:
   0:	0c 94 34 00 	jmp	0x68	; 0x68 <__ctors_end>
   4:	0c 94 3e 00 	jmp	0x7c	; 0x7c <__bad_interrupt>
   8:	0c 94 3e 00 	jmp	0x7c	; 0x7c <__bad_interrupt>
   c:	0c 94 3e 00 	jmp	0x7c	; 0x7c <__bad_interrupt>
  10:	0c 94 3e 00 	jmp	0x7c	; 0x7c <__bad_interrupt>
  14:	0c 94 3e 00 	jmp	0x7c	; 0x7c <__bad_interrupt>
  18:	0c 94 3e 00 	jmp	0x7c	; 0x7c <__bad_interrupt>
  1c:	0c 94 3e 00 	jmp	0x7c	; 0x7c <__bad_interrupt>
  20:	0c 94 3e 00 	jmp	0x7c	; 0x7c <__bad_interrupt>
  24:	0c 94 3e 00 	jmp	0x7c	; 0x7c <__bad_interrupt>
  28:	0c 94 3e 00 	jmp	0x7c	; 0x7c <__bad_interrupt>
  2c:	0c 94 3e 00 	jmp	0x7c	; 0x7c <__bad_interrupt>
  30:	0c 94 3e 00 	jmp	0x7c	; 0x7c <__bad_interrupt>
  34:	0c 94 3e 00 	jmp	0x7c	; 0x7c <__bad_interrupt>
  38:	0c 94 3e 00 	jmp	0x7c	; 0x7c <__bad_interrupt>
  3c:	0c 94 3e 00 	jmp	0x7c	; 0x7c <__bad_interrupt>
  40:	0c 94 3e 00 	jmp	0x7c	; 0x7c <__bad_interrupt>
  44:	0c 94 3e 00 	jmp	0x7c	; 0x7c <__bad_interrupt>
  48:	0c 94 3e 00 	jmp	0x7c	; 0x7c <__bad_interrupt>
  4c:	0c 94 3e 00 	jmp	0x7c	; 0x7c <__bad_interrupt>
  50:	0c 94 3e 00 	jmp	0x7c	; 0x7c <__bad_interrupt>
  54:	0c 94 3e 00 	jmp	0x7c	; 0x7c <__bad_interrupt>
  58:	0c 94 3e 00 	jmp	0x7c	; 0x7c <__bad_interrupt>
  5c:	0c 94 3e 00 	jmp	0x7c	; 0x7c <__bad_interrupt>
  60:	0c 94 3e 00 	jmp	0x7c	; 0x7c <__bad_interrupt>
  64:	0c 94 3e 00 	jmp	0x7c	; 0x7c <__bad_interrupt>

00000068 <__ctors_end>:
  68:	11 24       	eor	r1, r1
  6a:	1f be       	out	0x3f, r1	; 63
  6c:	cf ef       	ldi	r28, 0xFF	; 255
  6e:	d8 e0       	ldi	r29, 0x08	; 8
  70:	de bf       	out	0x3e, r29	; 62
  72:	cd bf       	out	0x3d, r28	; 61
  74:	0e 94 c7 00 	call	0x18e	; 0x18e <main>
  78:	0c 94 c7 01 	jmp	0x38e	; 0x38e <_exit>

0000007c <__bad_interrupt>:
  7c:	0c 94 00 00 	jmp	0	; 0x0 <__vectors>

00000080 <_ZN11APALEDArrayC1Ev>:
void APALEDArray::setLED(uint8_t x, uint8_t y, uint8_t R, uint8_t G, uint8_t B, uint8_t brightness) {
	pixels[x][y][0] = 224 + brightness;
	pixels[x][y][1] = B;
	pixels[x][y][2] = G;
	pixels[x][y][3] = R;
}
  80:	cf 93       	push	r28
  82:	df 93       	push	r29
  84:	ec 01       	movw	r28, r24
  86:	0e 94 bc 01 	call	0x378	; 0x378 <_ZN3SPI7SPIinitEv>
  8a:	fe 01       	movw	r30, r28
  8c:	ae 01       	movw	r20, r28
  8e:	53 95       	inc	r21
  90:	90 ee       	ldi	r25, 0xE0	; 224
  92:	9f 01       	movw	r18, r30
  94:	20 5e       	subi	r18, 0xE0	; 224
  96:	3f 4f       	sbci	r19, 0xFF	; 255
  98:	90 83       	st	Z, r25
  9a:	11 82       	std	Z+1, r1	; 0x01
  9c:	12 82       	std	Z+2, r1	; 0x02
  9e:	13 82       	std	Z+3, r1	; 0x03
  a0:	34 96       	adiw	r30, 0x04	; 4
  a2:	e2 17       	cp	r30, r18
  a4:	f3 07       	cpc	r31, r19
  a6:	c1 f7       	brne	.-16     	; 0x98 <_ZN11APALEDArrayC1Ev+0x18>
  a8:	f9 01       	movw	r30, r18
  aa:	42 17       	cp	r20, r18
  ac:	53 07       	cpc	r21, r19
  ae:	89 f7       	brne	.-30     	; 0x92 <_ZN11APALEDArrayC1Ev+0x12>
  b0:	df 91       	pop	r29
  b2:	cf 91       	pop	r28
  b4:	08 95       	ret

000000b6 <_ZN11APALEDArray11setLEDcolorEhhhhh>:

void APALEDArray::setLEDcolor(uint8_t x, uint8_t y, uint8_t R, uint8_t G, uint8_t B) {
  b6:	ef 92       	push	r14
  b8:	0f 93       	push	r16
	pixels[x][y][1] = B;
  ba:	e4 2f       	mov	r30, r20
  bc:	f0 e0       	ldi	r31, 0x00	; 0
  be:	38 e0       	ldi	r19, 0x08	; 8
  c0:	63 9f       	mul	r22, r19
  c2:	e0 0d       	add	r30, r0
  c4:	f1 1d       	adc	r31, r1
  c6:	11 24       	eor	r1, r1
  c8:	ee 0f       	add	r30, r30
  ca:	ff 1f       	adc	r31, r31
  cc:	ee 0f       	add	r30, r30
  ce:	ff 1f       	adc	r31, r31
  d0:	e8 0f       	add	r30, r24
  d2:	f9 1f       	adc	r31, r25
  d4:	e1 82       	std	Z+1, r14	; 0x01
	pixels[x][y][2] = G;
  d6:	02 83       	std	Z+2, r16	; 0x02
	pixels[x][y][3] = R;
  d8:	23 83       	std	Z+3, r18	; 0x03
}
  da:	0f 91       	pop	r16
  dc:	ef 90       	pop	r14
  de:	08 95       	ret

000000e0 <_ZN11APALEDArray16setLEDbrightnessEhhh>:

void APALEDArray::setLEDbrightness(uint8_t x, uint8_t y, uint8_t brightness) {
	pixels[x][y][0] = 224 + brightness;
  e0:	50 e0       	ldi	r21, 0x00	; 0
  e2:	38 e0       	ldi	r19, 0x08	; 8
  e4:	63 9f       	mul	r22, r19
  e6:	40 0d       	add	r20, r0
  e8:	51 1d       	adc	r21, r1
  ea:	11 24       	eor	r1, r1
  ec:	44 0f       	add	r20, r20
  ee:	55 1f       	adc	r21, r21
  f0:	44 0f       	add	r20, r20
  f2:	55 1f       	adc	r21, r21
  f4:	84 0f       	add	r24, r20
  f6:	95 1f       	adc	r25, r21
  f8:	20 52       	subi	r18, 0x20	; 32
  fa:	fc 01       	movw	r30, r24
  fc:	20 83       	st	Z, r18
  fe:	08 95       	ret

00000100 <_ZN11APALEDArray7refreshEv>:
}

void APALEDArray::refresh() {
 100:	af 92       	push	r10
 102:	bf 92       	push	r11
 104:	cf 92       	push	r12
 106:	df 92       	push	r13
 108:	ef 92       	push	r14
 10a:	ff 92       	push	r15
 10c:	0f 93       	push	r16
 10e:	1f 93       	push	r17
 110:	cf 93       	push	r28
 112:	df 93       	push	r29
 114:	5c 01       	movw	r10, r24
	for (uint8_t i = 0; i < 4; i++) {
		SPI::SPIsend(0);
 116:	80 e0       	ldi	r24, 0x00	; 0
 118:	0e 94 c2 01 	call	0x384	; 0x384 <_ZN3SPI7SPIsendEh>
 11c:	80 e0       	ldi	r24, 0x00	; 0
 11e:	0e 94 c2 01 	call	0x384	; 0x384 <_ZN3SPI7SPIsendEh>
 122:	80 e0       	ldi	r24, 0x00	; 0
 124:	0e 94 c2 01 	call	0x384	; 0x384 <_ZN3SPI7SPIsendEh>
 128:	80 e0       	ldi	r24, 0x00	; 0
 12a:	0e 94 c2 01 	call	0x384	; 0x384 <_ZN3SPI7SPIsendEh>
 12e:	65 01       	movw	r12, r10
 130:	b3 94       	inc	r11

void APALEDArray::setLEDbrightness(uint8_t x, uint8_t y, uint8_t brightness) {
	pixels[x][y][0] = 224 + brightness;
}

void APALEDArray::refresh() {
 132:	76 01       	movw	r14, r12
 134:	d8 e0       	ldi	r29, 0x08	; 8
 136:	87 01       	movw	r16, r14
 138:	c4 e0       	ldi	r28, 0x04	; 4
		SPI::SPIsend(0);
	}
	for (uint8_t i = 0; i < LEDArrayX; i++) {
		for (uint8_t j = 0; j < LEDArrayY; j++) {
			for (uint8_t k = 0; k < 4; k++) {
				SPI::SPIsend(pixels[i][j][k]);
 13a:	f8 01       	movw	r30, r16
 13c:	81 91       	ld	r24, Z+
 13e:	8f 01       	movw	r16, r30
 140:	0e 94 c2 01 	call	0x384	; 0x384 <_ZN3SPI7SPIsendEh>
 144:	c1 50       	subi	r28, 0x01	; 1
	for (uint8_t i = 0; i < 4; i++) {
		SPI::SPIsend(0);
	}
	for (uint8_t i = 0; i < LEDArrayX; i++) {
		for (uint8_t j = 0; j < LEDArrayY; j++) {
			for (uint8_t k = 0; k < 4; k++) {
 146:	c9 f7       	brne	.-14     	; 0x13a <_ZN11APALEDArray7refreshEv+0x3a>
 148:	d1 50       	subi	r29, 0x01	; 1
 14a:	f4 e0       	ldi	r31, 0x04	; 4
 14c:	ef 0e       	add	r14, r31
 14e:	f1 1c       	adc	r15, r1
void APALEDArray::refresh() {
	for (uint8_t i = 0; i < 4; i++) {
		SPI::SPIsend(0);
	}
	for (uint8_t i = 0; i < LEDArrayX; i++) {
		for (uint8_t j = 0; j < LEDArrayY; j++) {
 150:	d1 11       	cpse	r29, r1
 152:	f1 cf       	rjmp	.-30     	; 0x136 <_ZN11APALEDArray7refreshEv+0x36>
 154:	80 e2       	ldi	r24, 0x20	; 32
 156:	c8 0e       	add	r12, r24
 158:	d1 1c       	adc	r13, r1

void APALEDArray::refresh() {
	for (uint8_t i = 0; i < 4; i++) {
		SPI::SPIsend(0);
	}
	for (uint8_t i = 0; i < LEDArrayX; i++) {
 15a:	ac 14       	cp	r10, r12
 15c:	bd 04       	cpc	r11, r13
 15e:	49 f7       	brne	.-46     	; 0x132 <_ZN11APALEDArray7refreshEv+0x32>
				SPI::SPIsend(pixels[i][j][k]);
			}
		}
	}
	for (uint8_t i = 0; i < 4; i++) {
		SPI::SPIsend(0);
 160:	80 e0       	ldi	r24, 0x00	; 0
 162:	0e 94 c2 01 	call	0x384	; 0x384 <_ZN3SPI7SPIsendEh>
 166:	80 e0       	ldi	r24, 0x00	; 0
 168:	0e 94 c2 01 	call	0x384	; 0x384 <_ZN3SPI7SPIsendEh>
 16c:	80 e0       	ldi	r24, 0x00	; 0
 16e:	0e 94 c2 01 	call	0x384	; 0x384 <_ZN3SPI7SPIsendEh>
 172:	80 e0       	ldi	r24, 0x00	; 0
 174:	0e 94 c2 01 	call	0x384	; 0x384 <_ZN3SPI7SPIsendEh>
	}
}
 178:	df 91       	pop	r29
 17a:	cf 91       	pop	r28
 17c:	1f 91       	pop	r17
 17e:	0f 91       	pop	r16
 180:	ff 90       	pop	r15
 182:	ef 90       	pop	r14
 184:	df 90       	pop	r13
 186:	cf 90       	pop	r12
 188:	bf 90       	pop	r11
 18a:	af 90       	pop	r10
 18c:	08 95       	ret

0000018e <main>:

#include <avr/io.h>
#include <util/delay.h>
#include "APA102.h"

int main() {
 18e:	cf 93       	push	r28
 190:	df 93       	push	r29
 192:	cd b7       	in	r28, 0x3d	; 61
 194:	de b7       	in	r29, 0x3e	; 62
 196:	da 95       	dec	r29
 198:	0f b6       	in	r0, 0x3f	; 63
 19a:	f8 94       	cli
 19c:	de bf       	out	0x3e, r29	; 62
 19e:	0f be       	out	0x3f, r0	; 63
 1a0:	cd bf       	out	0x3d, r28	; 61
    APALEDArray matrix;
 1a2:	ce 01       	movw	r24, r28
 1a4:	01 96       	adiw	r24, 0x01	; 1
 1a6:	0e 94 40 00 	call	0x80	; 0x80 <_ZN11APALEDArrayC1Ev>
    matrix.refresh();
 1aa:	ce 01       	movw	r24, r28
 1ac:	01 96       	adiw	r24, 0x01	; 1
 1ae:	0e 94 80 00 	call	0x100	; 0x100 <_ZN11APALEDArray7refreshEv>
	
	while(1) {
		// DANISH FLAG
		for (uint8_t i = 0; i < 8; i++) {
			for (uint8_t k = 0; k < 8; k++) {
				matrix.setLEDcolor(i, k, 255, 0, 0);
 1b2:	ce 01       	movw	r24, r28
 1b4:	01 96       	adiw	r24, 0x01	; 1
 1b6:	5c 01       	movw	r10, r24
		}
		// fade in
		for (uint8_t i = 0; i < 15; i++) {
			for (uint8_t j = 0; j < 8; j++) {
				for (uint8_t k = 0; k < 8; k++) {
					matrix.setLEDbrightness(j, k, i);
 1b8:	d8 2e       	mov	r13, r24
 1ba:	fb 2c       	mov	r15, r11
    APALEDArray matrix;
    matrix.refresh();
	
	while(1) {
		// DANISH FLAG
		for (uint8_t i = 0; i < 8; i++) {
 1bc:	c1 2c       	mov	r12, r1
 1be:	10 e0       	ldi	r17, 0x00	; 0
			for (uint8_t k = 0; k < 8; k++) {
				matrix.setLEDcolor(i, k, 255, 0, 0);
 1c0:	e1 2c       	mov	r14, r1
 1c2:	00 e0       	ldi	r16, 0x00	; 0
 1c4:	2f ef       	ldi	r18, 0xFF	; 255
 1c6:	41 2f       	mov	r20, r17
 1c8:	6c 2d       	mov	r22, r12
 1ca:	c5 01       	movw	r24, r10
 1cc:	0e 94 5b 00 	call	0xb6	; 0xb6 <_ZN11APALEDArray11setLEDcolorEhhhhh>
    matrix.refresh();
	
	while(1) {
		// DANISH FLAG
		for (uint8_t i = 0; i < 8; i++) {
			for (uint8_t k = 0; k < 8; k++) {
 1d0:	1f 5f       	subi	r17, 0xFF	; 255
 1d2:	18 30       	cpi	r17, 0x08	; 8
 1d4:	a9 f7       	brne	.-22     	; 0x1c0 <main+0x32>
    APALEDArray matrix;
    matrix.refresh();
	
	while(1) {
		// DANISH FLAG
		for (uint8_t i = 0; i < 8; i++) {
 1d6:	c3 94       	inc	r12
 1d8:	98 e0       	ldi	r25, 0x08	; 8
 1da:	c9 12       	cpse	r12, r25
 1dc:	f0 cf       	rjmp	.-32     	; 0x1be <main+0x30>
 1de:	0f 2e       	mov	r0, r31
 1e0:	f3 e0       	ldi	r31, 0x03	; 3
 1e2:	cf 2e       	mov	r12, r31
 1e4:	f0 2d       	mov	r31, r0
 1e6:	10 e0       	ldi	r17, 0x00	; 0
				matrix.setLEDcolor(i, k, 255, 0, 0);
			}
		}
		for (uint8_t i = 3; i < 5; i++) {
			for (uint8_t j = 0; j < 8; j++) {
				matrix.setLEDcolor(i, j, 100, 100, 100);
 1e8:	0f 2e       	mov	r0, r31
 1ea:	f4 e6       	ldi	r31, 0x64	; 100
 1ec:	ef 2e       	mov	r14, r31
 1ee:	f0 2d       	mov	r31, r0
 1f0:	04 e6       	ldi	r16, 0x64	; 100
 1f2:	24 e6       	ldi	r18, 0x64	; 100
 1f4:	41 2f       	mov	r20, r17
 1f6:	6c 2d       	mov	r22, r12
 1f8:	c5 01       	movw	r24, r10
 1fa:	0e 94 5b 00 	call	0xb6	; 0xb6 <_ZN11APALEDArray11setLEDcolorEhhhhh>
				matrix.setLEDcolor(j, i, 100, 100, 100);
 1fe:	24 e6       	ldi	r18, 0x64	; 100
 200:	4c 2d       	mov	r20, r12
 202:	61 2f       	mov	r22, r17
 204:	c5 01       	movw	r24, r10
 206:	0e 94 5b 00 	call	0xb6	; 0xb6 <_ZN11APALEDArray11setLEDcolorEhhhhh>
			for (uint8_t k = 0; k < 8; k++) {
				matrix.setLEDcolor(i, k, 255, 0, 0);
			}
		}
		for (uint8_t i = 3; i < 5; i++) {
			for (uint8_t j = 0; j < 8; j++) {
 20a:	1f 5f       	subi	r17, 0xFF	; 255
 20c:	18 30       	cpi	r17, 0x08	; 8
 20e:	61 f7       	brne	.-40     	; 0x1e8 <main+0x5a>
		for (uint8_t i = 0; i < 8; i++) {
			for (uint8_t k = 0; k < 8; k++) {
				matrix.setLEDcolor(i, k, 255, 0, 0);
			}
		}
		for (uint8_t i = 3; i < 5; i++) {
 210:	c3 94       	inc	r12
 212:	25 e0       	ldi	r18, 0x05	; 5
 214:	c2 12       	cpse	r12, r18
 216:	e7 cf       	rjmp	.-50     	; 0x1e6 <main+0x58>
 218:	e1 2c       	mov	r14, r1
 21a:	00 e0       	ldi	r16, 0x00	; 0
 21c:	10 e0       	ldi	r17, 0x00	; 0
		}
		// fade in
		for (uint8_t i = 0; i < 15; i++) {
			for (uint8_t j = 0; j < 8; j++) {
				for (uint8_t k = 0; k < 8; k++) {
					matrix.setLEDbrightness(j, k, i);
 21e:	2e 2d       	mov	r18, r14
 220:	41 2f       	mov	r20, r17
 222:	60 2f       	mov	r22, r16
 224:	8d 2d       	mov	r24, r13
 226:	9f 2d       	mov	r25, r15
 228:	0e 94 70 00 	call	0xe0	; 0xe0 <_ZN11APALEDArray16setLEDbrightnessEhhh>
			}
		}
		// fade in
		for (uint8_t i = 0; i < 15; i++) {
			for (uint8_t j = 0; j < 8; j++) {
				for (uint8_t k = 0; k < 8; k++) {
 22c:	1f 5f       	subi	r17, 0xFF	; 255
 22e:	18 30       	cpi	r17, 0x08	; 8
 230:	b1 f7       	brne	.-20     	; 0x21e <main+0x90>
				matrix.setLEDcolor(j, i, 100, 100, 100);
			}
		}
		// fade in
		for (uint8_t i = 0; i < 15; i++) {
			for (uint8_t j = 0; j < 8; j++) {
 232:	0f 5f       	subi	r16, 0xFF	; 255
 234:	08 30       	cpi	r16, 0x08	; 8
 236:	91 f7       	brne	.-28     	; 0x21c <main+0x8e>
				for (uint8_t k = 0; k < 8; k++) {
					matrix.setLEDbrightness(j, k, i);
				}
			}
			matrix.refresh();
 238:	c5 01       	movw	r24, r10
 23a:	0e 94 80 00 	call	0x100	; 0x100 <_ZN11APALEDArray7refreshEv>
	#else
		//round up by default
		__ticks_dc = (uint32_t)(ceil(fabs(__tmp)));
	#endif

	__builtin_avr_delay_cycles(__ticks_dc);
 23e:	8f e7       	ldi	r24, 0x7F	; 127
 240:	98 e3       	ldi	r25, 0x38	; 56
 242:	21 e0       	ldi	r18, 0x01	; 1
 244:	81 50       	subi	r24, 0x01	; 1
 246:	90 40       	sbci	r25, 0x00	; 0
 248:	20 40       	sbci	r18, 0x00	; 0
 24a:	e1 f7       	brne	.-8      	; 0x244 <main+0xb6>
 24c:	00 c0       	rjmp	.+0      	; 0x24e <main+0xc0>
 24e:	00 00       	nop
				matrix.setLEDcolor(i, j, 100, 100, 100);
				matrix.setLEDcolor(j, i, 100, 100, 100);
			}
		}
		// fade in
		for (uint8_t i = 0; i < 15; i++) {
 250:	e3 94       	inc	r14
 252:	8f e0       	ldi	r24, 0x0F	; 15
 254:	e8 12       	cpse	r14, r24
 256:	e1 cf       	rjmp	.-62     	; 0x21a <main+0x8c>
 258:	0f 2e       	mov	r0, r31
 25a:	fe e0       	ldi	r31, 0x0E	; 14
 25c:	ef 2e       	mov	r14, r31
 25e:	f0 2d       	mov	r31, r0
 260:	00 e0       	ldi	r16, 0x00	; 0
 262:	10 e0       	ldi	r17, 0x00	; 0
		}
		// fade out
		for (uint8_t i = 14; i > 0; i--) {
			for (uint8_t j = 0; j < 8; j++) {
				for (uint8_t k = 0; k < 8; k++) {
					matrix.setLEDbrightness(j, k, i);
 264:	2e 2d       	mov	r18, r14
 266:	41 2f       	mov	r20, r17
 268:	60 2f       	mov	r22, r16
 26a:	8d 2d       	mov	r24, r13
 26c:	9f 2d       	mov	r25, r15
 26e:	0e 94 70 00 	call	0xe0	; 0xe0 <_ZN11APALEDArray16setLEDbrightnessEhhh>
			_delay_ms(25);
		}
		// fade out
		for (uint8_t i = 14; i > 0; i--) {
			for (uint8_t j = 0; j < 8; j++) {
				for (uint8_t k = 0; k < 8; k++) {
 272:	1f 5f       	subi	r17, 0xFF	; 255
 274:	18 30       	cpi	r17, 0x08	; 8
 276:	b1 f7       	brne	.-20     	; 0x264 <main+0xd6>
			matrix.refresh();
			_delay_ms(25);
		}
		// fade out
		for (uint8_t i = 14; i > 0; i--) {
			for (uint8_t j = 0; j < 8; j++) {
 278:	0f 5f       	subi	r16, 0xFF	; 255
 27a:	08 30       	cpi	r16, 0x08	; 8
 27c:	91 f7       	brne	.-28     	; 0x262 <main+0xd4>
				for (uint8_t k = 0; k < 8; k++) {
					matrix.setLEDbrightness(j, k, i);
				}
			}
			matrix.refresh();
 27e:	c5 01       	movw	r24, r10
 280:	0e 94 80 00 	call	0x100	; 0x100 <_ZN11APALEDArray7refreshEv>
 284:	9f e7       	ldi	r25, 0x7F	; 127
 286:	28 e3       	ldi	r18, 0x38	; 56
 288:	81 e0       	ldi	r24, 0x01	; 1
 28a:	91 50       	subi	r25, 0x01	; 1
 28c:	20 40       	sbci	r18, 0x00	; 0
 28e:	80 40       	sbci	r24, 0x00	; 0
 290:	e1 f7       	brne	.-8      	; 0x28a <main+0xfc>
 292:	00 c0       	rjmp	.+0      	; 0x294 <main+0x106>
 294:	00 00       	nop
 296:	ea 94       	dec	r14
			}
			matrix.refresh();
			_delay_ms(25);
		}
		// fade out
		for (uint8_t i = 14; i > 0; i--) {
 298:	e1 10       	cpse	r14, r1
 29a:	e2 cf       	rjmp	.-60     	; 0x260 <main+0xd2>
 29c:	c1 2c       	mov	r12, r1
 29e:	10 e0       	ldi	r17, 0x00	; 0
			_delay_ms(25);
		}
		// SWEDISH FLAG
		for (uint8_t i = 0; i < 8; i++) {
			for (uint8_t k = 0; k < 8; k++) {
				matrix.setLEDcolor(i, k, 0, 0, 255);
 2a0:	ee 24       	eor	r14, r14
 2a2:	ea 94       	dec	r14
 2a4:	00 e0       	ldi	r16, 0x00	; 0
 2a6:	20 e0       	ldi	r18, 0x00	; 0
 2a8:	41 2f       	mov	r20, r17
 2aa:	6c 2d       	mov	r22, r12
 2ac:	c5 01       	movw	r24, r10
 2ae:	0e 94 5b 00 	call	0xb6	; 0xb6 <_ZN11APALEDArray11setLEDcolorEhhhhh>
			matrix.refresh();
			_delay_ms(25);
		}
		// SWEDISH FLAG
		for (uint8_t i = 0; i < 8; i++) {
			for (uint8_t k = 0; k < 8; k++) {
 2b2:	1f 5f       	subi	r17, 0xFF	; 255
 2b4:	18 30       	cpi	r17, 0x08	; 8
 2b6:	a1 f7       	brne	.-24     	; 0x2a0 <main+0x112>
			}
			matrix.refresh();
			_delay_ms(25);
		}
		// SWEDISH FLAG
		for (uint8_t i = 0; i < 8; i++) {
 2b8:	c3 94       	inc	r12
 2ba:	98 e0       	ldi	r25, 0x08	; 8
 2bc:	c9 12       	cpse	r12, r25
 2be:	ef cf       	rjmp	.-34     	; 0x29e <main+0x110>
 2c0:	0f 2e       	mov	r0, r31
 2c2:	f3 e0       	ldi	r31, 0x03	; 3
 2c4:	cf 2e       	mov	r12, r31
 2c6:	f0 2d       	mov	r31, r0
 2c8:	10 e0       	ldi	r17, 0x00	; 0
				matrix.setLEDcolor(i, k, 0, 0, 255);
			}
		}
		for (uint8_t i = 3; i < 5; i++) {
			for (uint8_t j = 0; j < 8; j++) {
				matrix.setLEDcolor(i, j, 200, 200, 0);
 2ca:	e1 2c       	mov	r14, r1
 2cc:	08 ec       	ldi	r16, 0xC8	; 200
 2ce:	28 ec       	ldi	r18, 0xC8	; 200
 2d0:	41 2f       	mov	r20, r17
 2d2:	6c 2d       	mov	r22, r12
 2d4:	c5 01       	movw	r24, r10
 2d6:	0e 94 5b 00 	call	0xb6	; 0xb6 <_ZN11APALEDArray11setLEDcolorEhhhhh>
				matrix.setLEDcolor(j, i, 200, 200, 0);
 2da:	28 ec       	ldi	r18, 0xC8	; 200
 2dc:	4c 2d       	mov	r20, r12
 2de:	61 2f       	mov	r22, r17
 2e0:	c5 01       	movw	r24, r10
 2e2:	0e 94 5b 00 	call	0xb6	; 0xb6 <_ZN11APALEDArray11setLEDcolorEhhhhh>
			for (uint8_t k = 0; k < 8; k++) {
				matrix.setLEDcolor(i, k, 0, 0, 255);
			}
		}
		for (uint8_t i = 3; i < 5; i++) {
			for (uint8_t j = 0; j < 8; j++) {
 2e6:	1f 5f       	subi	r17, 0xFF	; 255
 2e8:	18 30       	cpi	r17, 0x08	; 8
 2ea:	79 f7       	brne	.-34     	; 0x2ca <main+0x13c>
		for (uint8_t i = 0; i < 8; i++) {
			for (uint8_t k = 0; k < 8; k++) {
				matrix.setLEDcolor(i, k, 0, 0, 255);
			}
		}
		for (uint8_t i = 3; i < 5; i++) {
 2ec:	c3 94       	inc	r12
 2ee:	25 e0       	ldi	r18, 0x05	; 5
 2f0:	c2 12       	cpse	r12, r18
 2f2:	ea cf       	rjmp	.-44     	; 0x2c8 <main+0x13a>
 2f4:	00 e0       	ldi	r16, 0x00	; 0
 2f6:	10 e0       	ldi	r17, 0x00	; 0
		}
		// fade in
		for (uint8_t i = 0; i < 15; i++) {
			for (uint8_t j = 0; j < 8; j++) {
				for (uint8_t k = 0; k < 8; k++) {
					matrix.setLEDbrightness(j, k, i);	
 2f8:	2e 2d       	mov	r18, r14
 2fa:	41 2f       	mov	r20, r17
 2fc:	60 2f       	mov	r22, r16
 2fe:	8d 2d       	mov	r24, r13
 300:	9f 2d       	mov	r25, r15
 302:	0e 94 70 00 	call	0xe0	; 0xe0 <_ZN11APALEDArray16setLEDbrightnessEhhh>
			}
		}
		// fade in
		for (uint8_t i = 0; i < 15; i++) {
			for (uint8_t j = 0; j < 8; j++) {
				for (uint8_t k = 0; k < 8; k++) {
 306:	1f 5f       	subi	r17, 0xFF	; 255
 308:	18 30       	cpi	r17, 0x08	; 8
 30a:	b1 f7       	brne	.-20     	; 0x2f8 <main+0x16a>
				matrix.setLEDcolor(j, i, 200, 200, 0);
			}
		}
		// fade in
		for (uint8_t i = 0; i < 15; i++) {
			for (uint8_t j = 0; j < 8; j++) {
 30c:	0f 5f       	subi	r16, 0xFF	; 255
 30e:	08 30       	cpi	r16, 0x08	; 8
 310:	91 f7       	brne	.-28     	; 0x2f6 <main+0x168>
				for (uint8_t k = 0; k < 8; k++) {
					matrix.setLEDbrightness(j, k, i);	
				}
			}
			matrix.refresh();
 312:	c5 01       	movw	r24, r10
 314:	0e 94 80 00 	call	0x100	; 0x100 <_ZN11APALEDArray7refreshEv>
 318:	8f e7       	ldi	r24, 0x7F	; 127
 31a:	98 e3       	ldi	r25, 0x38	; 56
 31c:	21 e0       	ldi	r18, 0x01	; 1
 31e:	81 50       	subi	r24, 0x01	; 1
 320:	90 40       	sbci	r25, 0x00	; 0
 322:	20 40       	sbci	r18, 0x00	; 0
 324:	e1 f7       	brne	.-8      	; 0x31e <main+0x190>
 326:	00 c0       	rjmp	.+0      	; 0x328 <main+0x19a>
 328:	00 00       	nop
				matrix.setLEDcolor(i, j, 200, 200, 0);
				matrix.setLEDcolor(j, i, 200, 200, 0);
			}
		}
		// fade in
		for (uint8_t i = 0; i < 15; i++) {
 32a:	e3 94       	inc	r14
 32c:	8f e0       	ldi	r24, 0x0F	; 15
 32e:	e8 12       	cpse	r14, r24
 330:	e1 cf       	rjmp	.-62     	; 0x2f4 <main+0x166>
 332:	0f 2e       	mov	r0, r31
 334:	fe e0       	ldi	r31, 0x0E	; 14
 336:	ef 2e       	mov	r14, r31
 338:	f0 2d       	mov	r31, r0
 33a:	00 e0       	ldi	r16, 0x00	; 0
 33c:	10 e0       	ldi	r17, 0x00	; 0
		}
		// fade out
		for (uint8_t i = 14; i > 0; i--) {
			for (uint8_t j = 0; j < 8; j++) {
				for (uint8_t k = 0; k < 8; k++) {
					matrix.setLEDbrightness(j, k, i);
 33e:	2e 2d       	mov	r18, r14
 340:	41 2f       	mov	r20, r17
 342:	60 2f       	mov	r22, r16
 344:	8d 2d       	mov	r24, r13
 346:	9f 2d       	mov	r25, r15
 348:	0e 94 70 00 	call	0xe0	; 0xe0 <_ZN11APALEDArray16setLEDbrightnessEhhh>
			_delay_ms(25);
		}
		// fade out
		for (uint8_t i = 14; i > 0; i--) {
			for (uint8_t j = 0; j < 8; j++) {
				for (uint8_t k = 0; k < 8; k++) {
 34c:	1f 5f       	subi	r17, 0xFF	; 255
 34e:	18 30       	cpi	r17, 0x08	; 8
 350:	b1 f7       	brne	.-20     	; 0x33e <main+0x1b0>
			matrix.refresh();
			_delay_ms(25);
		}
		// fade out
		for (uint8_t i = 14; i > 0; i--) {
			for (uint8_t j = 0; j < 8; j++) {
 352:	0f 5f       	subi	r16, 0xFF	; 255
 354:	08 30       	cpi	r16, 0x08	; 8
 356:	91 f7       	brne	.-28     	; 0x33c <main+0x1ae>
				for (uint8_t k = 0; k < 8; k++) {
					matrix.setLEDbrightness(j, k, i);
				}
			}
			matrix.refresh();
 358:	c5 01       	movw	r24, r10
 35a:	0e 94 80 00 	call	0x100	; 0x100 <_ZN11APALEDArray7refreshEv>
 35e:	9f e7       	ldi	r25, 0x7F	; 127
 360:	28 e3       	ldi	r18, 0x38	; 56
 362:	81 e0       	ldi	r24, 0x01	; 1
 364:	91 50       	subi	r25, 0x01	; 1
 366:	20 40       	sbci	r18, 0x00	; 0
 368:	80 40       	sbci	r24, 0x00	; 0
 36a:	e1 f7       	brne	.-8      	; 0x364 <main+0x1d6>
 36c:	00 c0       	rjmp	.+0      	; 0x36e <main+0x1e0>
 36e:	00 00       	nop
 370:	ea 94       	dec	r14
			}
			matrix.refresh();
			_delay_ms(25);
		}
		// fade out
		for (uint8_t i = 14; i > 0; i--) {
 372:	e1 10       	cpse	r14, r1
 374:	e2 cf       	rjmp	.-60     	; 0x33a <main+0x1ac>
 376:	22 cf       	rjmp	.-444    	; 0x1bc <main+0x2e>

00000378 <_ZN3SPI7SPIinitEv>:

#include "SPI.h"

void SPI::SPIinit() {
	// Set MOSI, SCK, SS as Output
	DDRB |= (1 << PB5) | (1 << PB3) | (1 << PB2);
 378:	84 b1       	in	r24, 0x04	; 4
 37a:	8c 62       	ori	r24, 0x2C	; 44
 37c:	84 b9       	out	0x04, r24	; 4
	
	// Enable SPI, Set as Master, Prescaler: Fosc/16
	SPCR = (1 << SPE) | (1 << MSTR) | (1 << SPR0);
 37e:	81 e5       	ldi	r24, 0x51	; 81
 380:	8c bd       	out	0x2c, r24	; 44
 382:	08 95       	ret

00000384 <_ZN3SPI7SPIsendEh>:
}

void SPI::SPIsend(uint8_t data) {
	// Load data into the buffer
	SPDR = data;
 384:	8e bd       	out	0x2e, r24	; 46
	
	// Wait until transmission complete
	while(!(SPSR & (1<<SPIF)));
 386:	0d b4       	in	r0, 0x2d	; 45
 388:	07 fe       	sbrs	r0, 7
 38a:	fd cf       	rjmp	.-6      	; 0x386 <_ZN3SPI7SPIsendEh+0x2>
 38c:	08 95       	ret

0000038e <_exit>:
 38e:	f8 94       	cli

00000390 <__stop_program>:
 390:	ff cf       	rjmp	.-2      	; 0x390 <__stop_program>
